; Function Attrs: nounwind uwtable
define range(i32 -2147483648, 2147483647) i32 @Gia_ManConeMark(ptr noundef %0, i32 noundef %1, i32 noundef %2) local_unnamed_addr #0 {
.lr.ph.preheader:
  %3 = getelementptr i8, ptr %0, i64 32
  %4 = getelementptr i8, ptr %0, i64 72
  %.val27 = load ptr, ptr %4, align 8, !tbaa !39
  %5 = getelementptr i8, ptr %.val27, i64 8
  %.val27.val = load ptr, ptr %5, align 8, !tbaa !35
  %6 = sext i32 %1 to i64
  %7 = getelementptr inbounds i32, ptr %.val27.val, i64 %6
  %8 = load i32, ptr %7, align 4, !tbaa !31
  %9 = tail call noalias dereferenceable_or_null(16) ptr @malloc(i64 noundef 16) #21
  %10 = getelementptr inbounds nuw i8, ptr %9, i64 4
  store i32 100, ptr %9, align 8, !tbaa !34
  %11 = tail call noalias dereferenceable_or_null(400) ptr @malloc(i64 noundef 400) #21
  %12 = getelementptr inbounds nuw i8, ptr %9, i64 8
  store ptr %11, ptr %12, align 8, !tbaa !35
  store i32 1, ptr %10, align 4, !tbaa !33
  store i32 %8, ptr %11, align 4, !tbaa !31
  tail call void @Gia_ManIncrementTravId(ptr noundef %0) #23
  %13 = getelementptr inbounds nuw i8, ptr %0, i64 176
  %14 = load i32, ptr %13, align 8, !tbaa !50
  %15 = getelementptr inbounds nuw i8, ptr %0, i64 616
  %16 = load ptr, ptr %15, align 8, !tbaa !49
  store i32 %14, ptr %16, align 4, !tbaa !31
  %.val2538 = load ptr, ptr %3, align 8, !tbaa !12
  %.not39 = icmp eq ptr %.val2538, null
  br i1 %.not39, label %.critedge, label %.lr.ph42

.lr.ph:                                           ; preds = %.lr.ph42
  %.val25 = load ptr, ptr %3, align 8, !tbaa !12
  %.not = icmp eq ptr %.val25, null
  br i1 %.not, label %.critedge.loopexit, label %.lr.ph42, !llvm.loop !51

.lr.ph42:                                         ; preds = %.lr.ph.preheader, %.lr.ph
  %.val2541 = phi ptr [ %.val25, %.lr.ph ], [ %.val2538, %.lr.ph.preheader ]
  %indvars.iv40 = phi i64 [ %indvars.iv.next, %.lr.ph ], [ 0, %.lr.ph.preheader ]
  %.val24 = load ptr, ptr %12, align 8, !tbaa !35
  %17 = getelementptr inbounds nuw i32, ptr %.val24, i64 %indvars.iv40
  %18 = load i32, ptr %17, align 4, !tbaa !31
  %19 = sext i32 %18 to i64
  %20 = getelementptr inbounds %struct.Gia_Obj_t_, ptr %.val2541, i64 %19
  %21 = tail call i32 @Gia_ManConeMark_rec(ptr noundef nonnull %0, ptr noundef nonnull %20, ptr noundef nonnull %9, i32 noundef %2)
  %.not21 = icmp eq i32 %21, 0
  %.val22.pre.pre = load i32, ptr %10, align 4, !tbaa !33
  %indvars.iv.next = add nuw nsw i64 %indvars.iv40, 1
  %22 = sext i32 %.val22.pre.pre to i64
  %23 = icmp slt i64 %indvars.iv.next, %22
  %or.cond = select i1 %.not21, i1 %23, i1 false
  br i1 %or.cond, label %.lr.ph, label %.critedge.loopexit, !llvm.loop !51

.critedge.loopexit:                               ; preds = %.lr.ph, %.lr.ph42
  %24 = add nsw i32 %.val22.pre.pre, -1
  br label %.critedge

.critedge:                                        ; preds = %.critedge.loopexit, %.lr.ph.preheader
  %.val22.pre = phi i32 [ 0, %.lr.ph.preheader ], [ %24, %.critedge.loopexit ]
  %.pre = load ptr, ptr %12, align 8, !tbaa !35
  %.not.i = icmp eq ptr %.pre, null
  br i1 %.not.i, label %Vec_IntFree.exit, label %25

25:                                               ; preds = %.critedge
  tail call void @free(ptr noundef nonnull %.pre) #23
  br label %Vec_IntFree.exit

Vec_IntFree.exit:                                 ; preds = %.critedge, %25
  tail call void @free(ptr noundef nonnull %9) #23
  ret i32 %.val22.pre
}